target datalayout = "e-m:e-p270:32:32-p271:32:32-p272:64:64-i64:64-i128:128-f80:128-n8:16:32:64-S128"
target triple = "x86_64-pc-linux-gnu"

; Function Attrs: null_pointer_is_valid sspstrong uwtable
define void @get_CDR_octet_seq(ptr noundef %0, ptr noundef %1, ptr noundef %2, ptr noundef %3, i32 noundef %4) #0 {
  %6 = alloca ptr, align 8
  %7 = alloca ptr, align 8
  %8 = alloca ptr, align 8
  %9 = alloca ptr, align 8
  %10 = alloca i32, align 4
  %11 = alloca ptr, align 8
  store ptr %0, ptr %6, align 8
  store ptr %1, ptr %7, align 8
  store ptr %2, ptr %8, align 8
  store ptr %3, ptr %9, align 8
  store i32 %4, ptr %10, align 4
  call void @llvm.lifetime.start.p0(i64 8, ptr %11) #14
  %12 = load ptr, ptr %7, align 8
  %13 = load ptr, ptr %9, align 8
  %14 = load i32, ptr %13, align 4
  %15 = load i32, ptr %10, align 4
  call void @tvb_ensure_bytes_exist(ptr noundef %12, i32 noundef %14, i32 noundef %15)
  %16 = load ptr, ptr %6, align 8
  %17 = load i32, ptr %10, align 4
  %18 = add i32 %17, 1
  %19 = icmp ule i32 %18, 0
  br i1 %19, label %26, label %20

20:                                               ; preds = %5
  %21 = load i32, ptr %10, align 4
  %22 = add i32 %21, 1
  %23 = zext i32 %22 to i64
  %24 = udiv i64 9223372036854775807, %23
  %25 = icmp ugt i64 1, %24
  br i1 %25, label %26, label %27

26:                                               ; preds = %20, %5
  br label %32

27:                                               ; preds = %20
  %28 = load i32, ptr %10, align 4
  %29 = add i32 %28, 1
  %30 = zext i32 %29 to i64
  %31 = mul i64 1, %30
  br label %32

32:                                               ; preds = %27, %26
  %33 = phi i64 [ 0, %26 ], [ %31, %27 ]
  %34 = call noalias ptr @wmem_alloc0(ptr noundef %16, i64 noundef %33) #15
  store ptr %34, ptr %11, align 8
  %35 = load ptr, ptr %7, align 8
  %36 = load ptr, ptr %11, align 8
  %37 = load ptr, ptr %9, align 8
  %38 = load i32, ptr %37, align 4
  %39 = load i32, ptr %10, align 4
  %40 = zext i32 %39 to i64
  %41 = call ptr @tvb_memcpy(ptr noundef %35, ptr noundef %36, i32 noundef %38, i64 noundef %40)
  %42 = load ptr, ptr %11, align 8
  %43 = load ptr, ptr %8, align 8
  store ptr %42, ptr %43, align 8
  %44 = load i32, ptr %10, align 4
  %45 = load ptr, ptr %9, align 8
  %46 = load i32, ptr %45, align 4
  %47 = add i32 %46, %44
  store i32 %47, ptr %45, align 4
  call void @llvm.lifetime.end.p0(i64 8, ptr %11) #14
  ret void
}