; Function Attrs: null_pointer_is_valid sspstrong uwtable
define void @get_CDR_octet_seq(ptr noundef %0, ptr noundef %1, ptr noundef writeonly captures(none) initializes((0, 8)) %2, ptr noundef captures(none) %3, i32 noundef %4) local_unnamed_addr #0 {
  %6 = load i32, ptr %3, align 4
  tail call void @tvb_ensure_bytes_exist(ptr noundef %1, i32 noundef %6, i32 noundef %4)
  %7 = add i32 %4, 1
  %8 = zext i32 %7 to i64
  %9 = tail call noalias ptr @wmem_alloc0(ptr noundef %0, i64 noundef %8) #18
  %10 = load i32, ptr %3, align 4
  %11 = zext i32 %4 to i64
  %12 = tail call ptr @tvb_memcpy(ptr noundef %1, ptr noundef %9, i32 noundef %10, i64 noundef %11)
  store ptr %9, ptr %2, align 8
  %13 = load i32, ptr %3, align 4
  %14 = add i32 %13, %4
  store i32 %14, ptr %3, align 4
  ret void
}